target datalayout = "e-m:e-p270:32:32-p271:32:32-p272:64:64-i64:64-i128:128-f80:128-n8:16:32:64-S128"
target triple = "x86_64-pc-linux-gnu"

%struct.Jpeg2000CodingStyle = type { i32, i32, i8, i8, i8, i8, i8, i8, i8, i8, [34 x i8], [34 x i8], i8 }
%struct.Jpeg2000Component = type { ptr, %struct.DWTContext, ptr, ptr, [2 x [2 x i32]], [2 x [2 x i32]], i8 }
%struct.DWTContext = type { [32 x [2 x i32]], [32 x [2 x i8]], i8, i8, ptr, ptr }
%struct.Jpeg2000ResLevel = type { i8, [2 x [2 x i32]], i32, i32, i8, i8, ptr }
%struct.Jpeg2000Band = type { [2 x [2 x i32]], i16, i16, i32, float, ptr }
%struct.Jpeg2000Prec = type { i32, i32, ptr, ptr, ptr, i32, [2 x [2 x i32]] }
%struct.Jpeg2000Cblk = type { i8, i8, i8, i8, i16, ptr, i8, i8, ptr, i64, i32, i32, ptr, ptr, ptr, [2 x [2 x i32]], i32, [2 x i32], i8, i8 }

; Function Attrs: nounwind uwtable
define void @ff_jpeg2000_cleanup(ptr noundef %0, ptr noundef %1) #0 {
  %3 = alloca ptr, align 8
  %4 = alloca ptr, align 8
  %5 = alloca i32, align 4
  %6 = alloca i32, align 4
  %7 = alloca i32, align 4
  %8 = alloca ptr, align 8
  %9 = alloca i32, align 4
  %10 = alloca ptr, align 8
  %11 = alloca ptr, align 8
  %12 = alloca i32, align 4
  %13 = alloca i32, align 4
  %14 = alloca ptr, align 8
  store ptr %0, ptr %3, align 8, !tbaa !33
  store ptr %1, ptr %4, align 8, !tbaa !35
  call void @llvm.lifetime.start.p0(i64 4, ptr %5) #8
  call void @llvm.lifetime.start.p0(i64 4, ptr %6) #8
  call void @llvm.lifetime.start.p0(i64 4, ptr %7) #8
  store i32 0, ptr %5, align 4, !tbaa !9
  br label %15

15:                                               ; preds = %146, %2
  %16 = load ptr, ptr %3, align 8, !tbaa !33
  %17 = getelementptr inbounds nuw %struct.Jpeg2000Component, ptr %16, i32 0, i32 0
  %18 = load ptr, ptr %17, align 8, !tbaa !52
  %19 = icmp ne ptr %18, null
  br i1 %19, label %20, label %26

20:                                               ; preds = %15
  %21 = load i32, ptr %5, align 4, !tbaa !9
  %22 = load ptr, ptr %4, align 8, !tbaa !35
  %23 = getelementptr inbounds nuw %struct.Jpeg2000CodingStyle, ptr %22, i32 0, i32 0
  %24 = load i32, ptr %23, align 4, !tbaa !51
  %25 = icmp slt i32 %21, %24
  br label %26

26:                                               ; preds = %20, %15
  %27 = phi i1 [ false, %15 ], [ %25, %20 ]
  br i1 %27, label %28, label %149

28:                                               ; preds = %26
  call void @llvm.lifetime.start.p0(i64 8, ptr %8) #8
  %29 = load ptr, ptr %3, align 8, !tbaa !33
  %30 = getelementptr inbounds nuw %struct.Jpeg2000Component, ptr %29, i32 0, i32 0
  %31 = load ptr, ptr %30, align 8, !tbaa !52
  %32 = icmp ne ptr %31, null
  br i1 %32, label %34, label %33

33:                                               ; preds = %28
  store i32 4, ptr %9, align 4
  br label %143

34:                                               ; preds = %28
  %35 = load ptr, ptr %3, align 8, !tbaa !33
  %36 = getelementptr inbounds nuw %struct.Jpeg2000Component, ptr %35, i32 0, i32 0
  %37 = load ptr, ptr %36, align 8, !tbaa !52
  %38 = load i32, ptr %5, align 4, !tbaa !9
  %39 = sext i32 %38 to i64
  %40 = getelementptr inbounds %struct.Jpeg2000ResLevel, ptr %37, i64 %39
  store ptr %40, ptr %8, align 8, !tbaa !53
  store i32 0, ptr %6, align 4, !tbaa !9
  br label %41

41:                                               ; preds = %137, %34
  %42 = load i32, ptr %6, align 4, !tbaa !9
  %43 = load ptr, ptr %8, align 8, !tbaa !53
  %44 = getelementptr inbounds nuw %struct.Jpeg2000ResLevel, ptr %43, i32 0, i32 0
  %45 = load i8, ptr %44, align 8, !tbaa !60
  %46 = zext i8 %45 to i32
  %47 = icmp slt i32 %42, %46
  br i1 %47, label %48, label %140

48:                                               ; preds = %41
  call void @llvm.lifetime.start.p0(i64 8, ptr %10) #8
  %49 = load ptr, ptr %8, align 8, !tbaa !53
  %50 = getelementptr inbounds nuw %struct.Jpeg2000ResLevel, ptr %49, i32 0, i32 6
  %51 = load ptr, ptr %50, align 8, !tbaa !63
  %52 = icmp ne ptr %51, null
  br i1 %52, label %54, label %53

53:                                               ; preds = %48
  store i32 7, ptr %9, align 4
  br label %134

54:                                               ; preds = %48
  %55 = load ptr, ptr %8, align 8, !tbaa !53
  %56 = getelementptr inbounds nuw %struct.Jpeg2000ResLevel, ptr %55, i32 0, i32 6
  %57 = load ptr, ptr %56, align 8, !tbaa !63
  %58 = load i32, ptr %6, align 4, !tbaa !9
  %59 = sext i32 %58 to i64
  %60 = getelementptr inbounds %struct.Jpeg2000Band, ptr %57, i64 %59
  store ptr %60, ptr %10, align 8, !tbaa !82
  store i32 0, ptr %7, align 4, !tbaa !9
  br label %61

61:                                               ; preds = %128, %54
  %62 = load i32, ptr %7, align 4, !tbaa !9
  %63 = load ptr, ptr %8, align 8, !tbaa !53
  %64 = getelementptr inbounds nuw %struct.Jpeg2000ResLevel, ptr %63, i32 0, i32 2
  %65 = load i32, ptr %64, align 4, !tbaa !61
  %66 = load ptr, ptr %8, align 8, !tbaa !53
  %67 = getelementptr inbounds nuw %struct.Jpeg2000ResLevel, ptr %66, i32 0, i32 3
  %68 = load i32, ptr %67, align 8, !tbaa !62
  %69 = mul nsw i32 %65, %68
  %70 = icmp slt i32 %62, %69
  br i1 %70, label %71, label %131

71:                                               ; preds = %61
  %72 = load ptr, ptr %10, align 8, !tbaa !82
  %73 = getelementptr inbounds nuw %struct.Jpeg2000Band, ptr %72, i32 0, i32 5
  %74 = load ptr, ptr %73, align 8, !tbaa !93
  %75 = icmp ne ptr %74, null
  br i1 %75, label %76, label %127

76:                                               ; preds = %71
  call void @llvm.lifetime.start.p0(i64 8, ptr %11) #8
  %77 = load ptr, ptr %10, align 8, !tbaa !82
  %78 = getelementptr inbounds nuw %struct.Jpeg2000Band, ptr %77, i32 0, i32 5
  %79 = load ptr, ptr %78, align 8, !tbaa !93
  %80 = load i32, ptr %7, align 4, !tbaa !9
  %81 = sext i32 %80 to i64
  %82 = getelementptr inbounds %struct.Jpeg2000Prec, ptr %79, i64 %81
  store ptr %82, ptr %11, align 8, !tbaa !95
  call void @llvm.lifetime.start.p0(i64 4, ptr %12) #8
  %83 = load ptr, ptr %11, align 8, !tbaa !95
  %84 = getelementptr inbounds nuw %struct.Jpeg2000Prec, ptr %83, i32 0, i32 1
  %85 = load i32, ptr %84, align 4, !tbaa !100
  %86 = load ptr, ptr %11, align 8, !tbaa !95
  %87 = getelementptr inbounds nuw %struct.Jpeg2000Prec, ptr %86, i32 0, i32 0
  %88 = load i32, ptr %87, align 8, !tbaa !99
  %89 = mul nsw i32 %85, %88
  store i32 %89, ptr %12, align 4, !tbaa !9
  %90 = load ptr, ptr %11, align 8, !tbaa !95
  %91 = getelementptr inbounds nuw %struct.Jpeg2000Prec, ptr %90, i32 0, i32 2
  call void @av_freep(ptr noundef %91)
  %92 = load ptr, ptr %11, align 8, !tbaa !95
  %93 = getelementptr inbounds nuw %struct.Jpeg2000Prec, ptr %92, i32 0, i32 3
  call void @av_freep(ptr noundef %93)
  %94 = load ptr, ptr %11, align 8, !tbaa !95
  %95 = getelementptr inbounds nuw %struct.Jpeg2000Prec, ptr %94, i32 0, i32 4
  %96 = load ptr, ptr %95, align 8, !tbaa !102
  %97 = icmp ne ptr %96, null
  br i1 %97, label %98, label %126

98:                                               ; preds = %76
  call void @llvm.lifetime.start.p0(i64 4, ptr %13) #8
  store i32 0, ptr %13, align 4, !tbaa !9
  br label %99

99:                                               ; preds = %120, %98
  %100 = load i32, ptr %13, align 4, !tbaa !9
  %101 = load i32, ptr %12, align 4, !tbaa !9
  %102 = icmp slt i32 %100, %101
  br i1 %102, label %103, label %123

103:                                              ; preds = %99
  call void @llvm.lifetime.start.p0(i64 8, ptr %14) #8
  %104 = load ptr, ptr %11, align 8, !tbaa !95
  %105 = getelementptr inbounds nuw %struct.Jpeg2000Prec, ptr %104, i32 0, i32 4
  %106 = load ptr, ptr %105, align 8, !tbaa !102
  %107 = load i32, ptr %13, align 4, !tbaa !9
  %108 = sext i32 %107 to i64
  %109 = getelementptr inbounds %struct.Jpeg2000Cblk, ptr %106, i64 %108
  store ptr %109, ptr %14, align 8, !tbaa !103
  %110 = load ptr, ptr %14, align 8, !tbaa !103
  %111 = getelementptr inbounds nuw %struct.Jpeg2000Cblk, ptr %110, i32 0, i32 8
  call void @av_freep(ptr noundef %111)
  %112 = load ptr, ptr %14, align 8, !tbaa !103
  %113 = getelementptr inbounds nuw %struct.Jpeg2000Cblk, ptr %112, i32 0, i32 13
  call void @av_freep(ptr noundef %113)
  %114 = load ptr, ptr %14, align 8, !tbaa !103
  %115 = getelementptr inbounds nuw %struct.Jpeg2000Cblk, ptr %114, i32 0, i32 5
  call void @av_freep(ptr noundef %115)
  %116 = load ptr, ptr %14, align 8, !tbaa !103
  %117 = getelementptr inbounds nuw %struct.Jpeg2000Cblk, ptr %116, i32 0, i32 12
  call void @av_freep(ptr noundef %117)
  %118 = load ptr, ptr %14, align 8, !tbaa !103
  %119 = getelementptr inbounds nuw %struct.Jpeg2000Cblk, ptr %118, i32 0, i32 14
  call void @av_freep(ptr noundef %119)
  call void @llvm.lifetime.end.p0(i64 8, ptr %14) #8
  br label %120

120:                                              ; preds = %103
  %121 = load i32, ptr %13, align 4, !tbaa !9
  %122 = add nsw i32 %121, 1
  store i32 %122, ptr %13, align 4, !tbaa !9
  br label %99, !llvm.loop !113

123:                                              ; preds = %99
  %124 = load ptr, ptr %11, align 8, !tbaa !95
  %125 = getelementptr inbounds nuw %struct.Jpeg2000Prec, ptr %124, i32 0, i32 4
  call void @av_freep(ptr noundef %125)
  call void @llvm.lifetime.end.p0(i64 4, ptr %13) #8
  br label %126

126:                                              ; preds = %123, %76
  call void @llvm.lifetime.end.p0(i64 4, ptr %12) #8
  call void @llvm.lifetime.end.p0(i64 8, ptr %11) #8
  br label %127

127:                                              ; preds = %126, %71
  br label %128

128:                                              ; preds = %127
  %129 = load i32, ptr %7, align 4, !tbaa !9
  %130 = add nsw i32 %129, 1
  store i32 %130, ptr %7, align 4, !tbaa !9
  br label %61, !llvm.loop !114

131:                                              ; preds = %61
  %132 = load ptr, ptr %10, align 8, !tbaa !82
  %133 = getelementptr inbounds nuw %struct.Jpeg2000Band, ptr %132, i32 0, i32 5
  call void @av_freep(ptr noundef %133)
  store i32 0, ptr %9, align 4
  br label %134

134:                                              ; preds = %131, %53
  call void @llvm.lifetime.end.p0(i64 8, ptr %10) #8
  %135 = load i32, ptr %9, align 4
  switch i32 %135, label %158 [
    i32 0, label %136
    i32 7, label %137
  ]

136:                                              ; preds = %134
  br label %137

137:                                              ; preds = %136, %134
  %138 = load i32, ptr %6, align 4, !tbaa !9
  %139 = add nsw i32 %138, 1
  store i32 %139, ptr %6, align 4, !tbaa !9
  br label %41, !llvm.loop !115

140:                                              ; preds = %41
  %141 = load ptr, ptr %8, align 8, !tbaa !53
  %142 = getelementptr inbounds nuw %struct.Jpeg2000ResLevel, ptr %141, i32 0, i32 6
  call void @av_freep(ptr noundef %142)
  store i32 0, ptr %9, align 4
  br label %143

143:                                              ; preds = %140, %33
  call void @llvm.lifetime.end.p0(i64 8, ptr %8) #8
  %144 = load i32, ptr %9, align 4
  switch i32 %144, label %158 [
    i32 0, label %145
    i32 4, label %146
  ]

145:                                              ; preds = %143
  br label %146

146:                                              ; preds = %145, %143
  %147 = load i32, ptr %5, align 4, !tbaa !9
  %148 = add nsw i32 %147, 1
  store i32 %148, ptr %5, align 4, !tbaa !9
  br label %15, !llvm.loop !116

149:                                              ; preds = %26
  %150 = load ptr, ptr %3, align 8, !tbaa !33
  %151 = getelementptr inbounds nuw %struct.Jpeg2000Component, ptr %150, i32 0, i32 1
  call void @ff_dwt_destroy(ptr noundef %151)
  %152 = load ptr, ptr %3, align 8, !tbaa !33
  %153 = getelementptr inbounds nuw %struct.Jpeg2000Component, ptr %152, i32 0, i32 0
  call void @av_freep(ptr noundef %153)
  %154 = load ptr, ptr %3, align 8, !tbaa !33
  %155 = getelementptr inbounds nuw %struct.Jpeg2000Component, ptr %154, i32 0, i32 3
  call void @av_freep(ptr noundef %155)
  %156 = load ptr, ptr %3, align 8, !tbaa !33
  %157 = getelementptr inbounds nuw %struct.Jpeg2000Component, ptr %156, i32 0, i32 2
  call void @av_freep(ptr noundef %157)
  call void @llvm.lifetime.end.p0(i64 4, ptr %7) #8
  call void @llvm.lifetime.end.p0(i64 4, ptr %6) #8
  call void @llvm.lifetime.end.p0(i64 4, ptr %5) #8
  ret void

158:                                              ; preds = %143, %134
  unreachable
}