; Function Attrs: nounwind uwtable
define void @ff_jpeg2000_cleanup(ptr noundef %0, ptr noundef readonly captures(none) %1) local_unnamed_addr #0 {
  %3 = load ptr, ptr %0, align 8, !tbaa !39
  %.not59 = icmp eq ptr %3, null
  br i1 %.not59, label %.critedge, label %.lr.ph62

.lr.ph62:                                         ; preds = %2, %._crit_edge58
  %indvars.iv74 = phi i64 [ %indvars.iv.next75, %._crit_edge58 ], [ 0, %2 ]
  %4 = phi ptr [ %58, %._crit_edge58 ], [ %3, %2 ]
  %5 = load i32, ptr %1, align 4, !tbaa !38
  %6 = sext i32 %5 to i64
  %7 = icmp slt i64 %indvars.iv74, %6
  br i1 %7, label %8, label %.critedge

8:                                                ; preds = %.lr.ph62
  %9 = getelementptr inbounds nuw %struct.Jpeg2000ResLevel, ptr %4, i64 %indvars.iv74
  %10 = load i8, ptr %9, align 8, !tbaa !45
  %.not64 = icmp eq i8 %10, 0
  br i1 %.not64, label %._crit_edge58, label %.lr.ph57

.lr.ph57:                                         ; preds = %8
  %11 = getelementptr inbounds nuw i8, ptr %9, i64 32
  %12 = getelementptr inbounds nuw i8, ptr %9, i64 20
  %13 = getelementptr inbounds nuw i8, ptr %9, i64 24
  %14 = load ptr, ptr %11, align 8, !tbaa !48
  %15 = icmp eq ptr %14, null
  br i1 %15, label %._crit_edge58, label %.lr.ph57.split

.lr.ph57.splitthread-pre-split:                   ; preds = %53
  %.pr = load ptr, ptr %11, align 8, !tbaa !48
  br label %.lr.ph57.split

.lr.ph57.split:                                   ; preds = %.lr.ph57, %.lr.ph57.splitthread-pre-split
  %16 = phi ptr [ %.pr, %.lr.ph57.splitthread-pre-split ], [ %14, %.lr.ph57 ]
  %17 = phi i8 [ %54, %.lr.ph57.splitthread-pre-split ], [ %10, %.lr.ph57 ]
  %indvars.iv71 = phi i64 [ %indvars.iv.next72, %.lr.ph57.splitthread-pre-split ], [ 0, %.lr.ph57 ]
  %.not47 = icmp eq ptr %16, null
  br i1 %.not47, label %53, label %18

18:                                               ; preds = %.lr.ph57.split
  %19 = getelementptr inbounds nuw %struct.Jpeg2000Band, ptr %16, i64 %indvars.iv71
  %20 = load i32, ptr %12, align 4, !tbaa !46
  %21 = load i32, ptr %13, align 8, !tbaa !47
  %22 = mul nsw i32 %21, %20
  %23 = icmp sgt i32 %22, 0
  br i1 %23, label %.lr.ph53, label %._crit_edge54

.lr.ph53:                                         ; preds = %18
  %24 = getelementptr inbounds nuw i8, ptr %19, i64 32
  %25 = load ptr, ptr %24, align 8, !tbaa !78
  %26 = icmp eq ptr %25, null
  br i1 %26, label %._crit_edge54, label %.lr.ph53.split

.lr.ph53.splitthread-pre-split:                   ; preds = %46
  %.pr77 = load ptr, ptr %24, align 8, !tbaa !78
  br label %.lr.ph53.split

.lr.ph53.split:                                   ; preds = %.lr.ph53, %.lr.ph53.splitthread-pre-split
  %27 = phi ptr [ %.pr77, %.lr.ph53.splitthread-pre-split ], [ %25, %.lr.ph53 ]
  %indvars.iv68 = phi i64 [ %indvars.iv.next69, %.lr.ph53.splitthread-pre-split ], [ 0, %.lr.ph53 ]
  %.not48 = icmp eq ptr %27, null
  br i1 %.not48, label %46, label %28

28:                                               ; preds = %.lr.ph53.split
  %29 = getelementptr inbounds nuw %struct.Jpeg2000Prec, ptr %27, i64 %indvars.iv68
  %30 = getelementptr inbounds nuw i8, ptr %29, i64 4
  %31 = load i32, ptr %30, align 4, !tbaa !83
  %32 = load i32, ptr %29, align 8, !tbaa !82
  %33 = mul i32 %32, %31
  %34 = getelementptr inbounds nuw i8, ptr %29, i64 8
  tail call void @av_freep(ptr noundef nonnull %34) #8
  %35 = getelementptr inbounds nuw i8, ptr %29, i64 16
  tail call void @av_freep(ptr noundef nonnull %35) #8
  %36 = getelementptr inbounds nuw i8, ptr %29, i64 24
  %37 = load ptr, ptr %36, align 8, !tbaa !86
  %.not49 = icmp eq ptr %37, null
  br i1 %.not49, label %46, label %.preheader

.preheader:                                       ; preds = %28
  %38 = icmp sgt i32 %33, 0
  br i1 %38, label %.lr.ph.preheader, label %._crit_edge

.lr.ph.preheader:                                 ; preds = %.preheader
  %wide.trip.count = zext nneg i32 %33 to i64
  br label %.lr.ph

.lr.ph:                                           ; preds = %.lr.ph.preheader, %.lr.ph
  %indvars.iv = phi i64 [ 0, %.lr.ph.preheader ], [ %indvars.iv.next, %.lr.ph ]
  %39 = load ptr, ptr %36, align 8, !tbaa !86
  %40 = getelementptr inbounds nuw %struct.Jpeg2000Cblk, ptr %39, i64 %indvars.iv
  %41 = getelementptr inbounds nuw i8, ptr %40, i64 24
  tail call void @av_freep(ptr noundef nonnull %41) #8
  %42 = getelementptr inbounds nuw i8, ptr %40, i64 56
  tail call void @av_freep(ptr noundef nonnull %42) #8
  %43 = getelementptr inbounds nuw i8, ptr %40, i64 8
  tail call void @av_freep(ptr noundef nonnull %43) #8
  %44 = getelementptr inbounds nuw i8, ptr %40, i64 48
  tail call void @av_freep(ptr noundef nonnull %44) #8
  %45 = getelementptr inbounds nuw i8, ptr %40, i64 64
  tail call void @av_freep(ptr noundef nonnull %45) #8
  %indvars.iv.next = add nuw nsw i64 %indvars.iv, 1
  %exitcond.not = icmp eq i64 %indvars.iv.next, %wide.trip.count
  br i1 %exitcond.not, label %._crit_edge, label %.lr.ph, !llvm.loop !104

._crit_edge:                                      ; preds = %.lr.ph, %.preheader
  tail call void @av_freep(ptr noundef nonnull %36) #8
  br label %46

46:                                               ; preds = %28, %._crit_edge, %.lr.ph53.split
  %indvars.iv.next69 = add nuw nsw i64 %indvars.iv68, 1
  %47 = load i32, ptr %12, align 4, !tbaa !46
  %48 = load i32, ptr %13, align 8, !tbaa !47
  %49 = mul nsw i32 %48, %47
  %50 = sext i32 %49 to i64
  %51 = icmp slt i64 %indvars.iv.next69, %50
  br i1 %51, label %.lr.ph53.splitthread-pre-split, label %._crit_edge54, !llvm.loop !105

._crit_edge54:                                    ; preds = %46, %.lr.ph53, %18
  %52 = getelementptr inbounds nuw i8, ptr %19, i64 32
  tail call void @av_freep(ptr noundef nonnull %52) #8
  %.pre = load i8, ptr %9, align 8, !tbaa !45
  br label %53

53:                                               ; preds = %.lr.ph57.split, %._crit_edge54
  %54 = phi i8 [ %17, %.lr.ph57.split ], [ %.pre, %._crit_edge54 ]
  %indvars.iv.next72 = add nuw nsw i64 %indvars.iv71, 1
  %55 = zext i8 %54 to i64
  %56 = icmp samesign ult i64 %indvars.iv.next72, %55
  br i1 %56, label %.lr.ph57.splitthread-pre-split, label %._crit_edge58, !llvm.loop !107

._crit_edge58:                                    ; preds = %53, %.lr.ph57, %8
  %57 = getelementptr inbounds nuw i8, ptr %9, i64 32
  tail call void @av_freep(ptr noundef nonnull %57) #8
  %indvars.iv.next75 = add nuw nsw i64 %indvars.iv74, 1
  %58 = load ptr, ptr %0, align 8, !tbaa !39
  %.not = icmp eq ptr %58, null
  br i1 %.not, label %.critedge, label %.lr.ph62, !llvm.loop !108

.critedge:                                        ; preds = %.lr.ph62, %._crit_edge58, %2
  %59 = getelementptr inbounds nuw i8, ptr %0, i64 8
  tail call void @ff_dwt_destroy(ptr noundef nonnull %59) #8
  tail call void @av_freep(ptr noundef nonnull %0) #8
  %60 = getelementptr inbounds nuw i8, ptr %0, i64 360
  tail call void @av_freep(ptr noundef nonnull %60) #8
  %61 = getelementptr inbounds nuw i8, ptr %0, i64 352
  tail call void @av_freep(ptr noundef nonnull %61) #8
  ret void
}